; Function Attrs: mustprogress nofree norecurse nosync nounwind sspstrong willreturn memory(argmem: readwrite) uwtable
define internal range(i32 -400, 4) i32 @code_to_mbc(i32 noundef %0, ptr noundef captures(none) %1, ptr readnone captures(none) %2) #5 {
  %4 = and i32 %0, 16711680
  %.not = icmp eq i32 %4, 0
  br i1 %.not, label %8, label %5

5:                                                ; preds = %3
  %6 = lshr i32 %0, 16
  %7 = trunc i32 %6 to i8
  store i8 %7, ptr %1, align 1, !tbaa !6
  br label %8

8:                                                ; preds = %5, %3
  %.0.idx = phi i64 [ 1, %5 ], [ 0, %3 ]
  %9 = and i32 %0, 65280
  %.not18 = icmp eq i32 %9, 0
  br i1 %.not18, label %13, label %10

10:                                               ; preds = %8
  %.0.ptr = getelementptr inbounds nuw i8, ptr %1, i64 %.0.idx
  %11 = lshr i32 %0, 8
  %12 = trunc i32 %11 to i8
  %.0.add = add nuw nsw i64 %.0.idx, 1
  store i8 %12, ptr %.0.ptr, align 1, !tbaa !6
  br label %13

13:                                               ; preds = %10, %8
  %.1.idx = phi i64 [ %.0.add, %10 ], [ %.0.idx, %8 ]
  %.1.ptr = getelementptr inbounds nuw i8, ptr %1, i64 %.1.idx
  %14 = trunc i32 %0 to i8
  %.1.add = add nuw nsw i64 %.1.idx, 1
  store i8 %14, ptr %.1.ptr, align 1, !tbaa !6
  %15 = getelementptr inbounds nuw i8, ptr %1, i64 1
  %16 = load i8, ptr %1, align 1, !tbaa !6
  %17 = zext i8 %16 to i64
  %18 = getelementptr inbounds nuw [256 x i8], ptr @trans, i64 0, i64 %17
  %19 = load i8, ptr %18, align 1, !tbaa !6
  %20 = sext i8 %19 to i64
  %21 = icmp slt i8 %19, 0
  br i1 %21, label %22, label %25

22:                                               ; preds = %13
  %23 = icmp eq i8 %19, -1
  %24 = select i1 %23, i32 1, i32 -1
  br label %mbc_enc_len.exit

25:                                               ; preds = %13
  %26 = icmp samesign eq i64 %.1.idx, 0
  br i1 %26, label %27, label %31

27:                                               ; preds = %25
  %28 = getelementptr inbounds nuw [256 x i32], ptr @EncLen_EUCJP, i64 0, i64 %17
  %29 = load i32, ptr %28, align 4, !tbaa !9
  %30 = sub nsw i32 0, %29
  br label %mbc_enc_len.exit

31:                                               ; preds = %25
  %32 = getelementptr inbounds nuw i8, ptr %1, i64 2
  %33 = load i8, ptr %15, align 1, !tbaa !6
  %34 = zext i8 %33 to i64
  %35 = getelementptr inbounds nuw [3 x [256 x i8]], ptr @trans, i64 0, i64 %20, i64 %34
  %36 = load i8, ptr %35, align 1, !tbaa !6
  %37 = sext i8 %36 to i64
  %38 = icmp slt i8 %36, 0
  br i1 %38, label %39, label %42

39:                                               ; preds = %31
  %40 = icmp eq i8 %36, -1
  %41 = select i1 %40, i32 2, i32 -1
  br label %mbc_enc_len.exit

42:                                               ; preds = %31
  %43 = icmp eq i64 %.1.add, 2
  br i1 %43, label %44, label %48

44:                                               ; preds = %42
  %45 = getelementptr inbounds nuw [256 x i32], ptr @EncLen_EUCJP, i64 0, i64 %17
  %46 = load i32, ptr %45, align 4, !tbaa !9
  %47 = sub nsw i32 1, %46
  br label %mbc_enc_len.exit

48:                                               ; preds = %42
  %49 = load i8, ptr %32, align 1, !tbaa !6
  %50 = zext i8 %49 to i64
  %51 = getelementptr inbounds nuw [3 x [256 x i8]], ptr @trans, i64 0, i64 %37, i64 %50
  %52 = load i8, ptr %51, align 1, !tbaa !6
  %53 = icmp eq i8 %52, -1
  %54 = select i1 %53, i32 3, i32 -1
  br label %mbc_enc_len.exit

mbc_enc_len.exit:                                 ; preds = %22, %27, %39, %44, %48
  %.0.i = phi i32 [ %24, %22 ], [ %30, %27 ], [ %41, %39 ], [ %47, %44 ], [ %54, %48 ]
  %55 = sext i32 %.0.i to i64
  %.not19 = icmp eq i64 %.1.add, %55
  %56 = trunc nuw nsw i64 %.1.add to i32
  %.016 = select i1 %.not19, i32 %56, i32 -400
  ret i32 %.016
}